target datalayout = "e-m:e-p270:32:32-p271:32:32-p272:64:64-i64:64-i128:128-f80:128-n8:16:32:64-S128"
target triple = "x86_64-pc-linux-gnu"

%"struct.dpx::IndustryHeader" = type { [2 x i8], [2 x i8], [2 x i8], [6 x i8], [4 x i8], [32 x i8], i32, i32, i32, float, float, [32 x i8], [100 x i8], [56 x i8], i32, i32, i8, i8, i8, i8, float, float, float, float, float, float, float, float, float, float, [76 x i8] }

; Function Attrs: mustprogress nounwind uwtable
define linkonce_odr noundef float @_ZNSt14numeric_limitsIfE9quiet_NaNEv() #6 comdat align 2 {
  ret float 0x7FF8000000000000
}

; Function Attrs: mustprogress nounwind uwtable
define internal void @_ZL11EmptyStringPci(ptr noundef %0, i32 noundef %1) #6 {
  %3 = alloca ptr, align 8
  %4 = alloca i32, align 4
  %5 = alloca i32, align 4
  store ptr %0, ptr %3, align 8, !tbaa !45
  store i32 %1, ptr %4, align 4, !tbaa !42
  call void @llvm.lifetime.start.p0(i64 4, ptr %5) #5
  store i32 0, ptr %5, align 4, !tbaa !42
  br label %6

6:                                                ; preds = %16, %2
  %7 = load i32, ptr %5, align 4, !tbaa !42
  %8 = load i32, ptr %4, align 4, !tbaa !42
  %9 = icmp slt i32 %7, %8
  br i1 %9, label %11, label %10

10:                                               ; preds = %6
  call void @llvm.lifetime.end.p0(i64 4, ptr %5) #5
  br label %19

11:                                               ; preds = %6
  %12 = load ptr, ptr %3, align 8, !tbaa !45
  %13 = load i32, ptr %5, align 4, !tbaa !42
  %14 = sext i32 %13 to i64
  %15 = getelementptr inbounds i8, ptr %12, i64 %14
  store i8 0, ptr %15, align 1, !tbaa !8
  br label %16

16:                                               ; preds = %11
  %17 = load i32, ptr %5, align 4, !tbaa !42
  %18 = add nsw i32 %17, 1
  store i32 %18, ptr %5, align 4, !tbaa !42
  br label %6, !llvm.loop !47

19:                                               ; preds = %10
  ret void
}

; Function Attrs: mustprogress uwtable
define hidden void @_ZN3dpx14IndustryHeader5ResetEv(ptr noundef nonnull align 4 dereferenceable(384) %0) #7 align 2 {
  %2 = alloca ptr, align 8
  store ptr %0, ptr %2, align 8, !tbaa !21
  %3 = load ptr, ptr %2, align 8
  %4 = getelementptr inbounds nuw %"struct.dpx::IndustryHeader", ptr %3, i32 0, i32 0
  %5 = getelementptr inbounds [2 x i8], ptr %4, i64 0, i64 0
  call void @_ZL11EmptyStringPci(ptr noundef %5, i32 noundef 2)
  %6 = getelementptr inbounds nuw %"struct.dpx::IndustryHeader", ptr %3, i32 0, i32 1
  %7 = getelementptr inbounds [2 x i8], ptr %6, i64 0, i64 0
  call void @_ZL11EmptyStringPci(ptr noundef %7, i32 noundef 2)
  %8 = getelementptr inbounds nuw %"struct.dpx::IndustryHeader", ptr %3, i32 0, i32 2
  %9 = getelementptr inbounds [2 x i8], ptr %8, i64 0, i64 0
  call void @_ZL11EmptyStringPci(ptr noundef %9, i32 noundef 2)
  %10 = getelementptr inbounds nuw %"struct.dpx::IndustryHeader", ptr %3, i32 0, i32 3
  %11 = getelementptr inbounds [6 x i8], ptr %10, i64 0, i64 0
  call void @_ZL11EmptyStringPci(ptr noundef %11, i32 noundef 6)
  %12 = getelementptr inbounds nuw %"struct.dpx::IndustryHeader", ptr %3, i32 0, i32 4
  %13 = getelementptr inbounds [4 x i8], ptr %12, i64 0, i64 0
  call void @_ZL11EmptyStringPci(ptr noundef %13, i32 noundef 4)
  %14 = getelementptr inbounds nuw %"struct.dpx::IndustryHeader", ptr %3, i32 0, i32 5
  %15 = getelementptr inbounds [32 x i8], ptr %14, i64 0, i64 0
  call void @_ZL11EmptyStringPci(ptr noundef %15, i32 noundef 32)
  %16 = getelementptr inbounds nuw %"struct.dpx::IndustryHeader", ptr %3, i32 0, i32 8
  store i32 -1, ptr %16, align 4, !tbaa !55
  %17 = getelementptr inbounds nuw %"struct.dpx::IndustryHeader", ptr %3, i32 0, i32 7
  store i32 -1, ptr %17, align 4, !tbaa !56
  %18 = getelementptr inbounds nuw %"struct.dpx::IndustryHeader", ptr %3, i32 0, i32 6
  store i32 -1, ptr %18, align 4, !tbaa !57
  %19 = call noundef float @_ZNSt14numeric_limitsIfE9quiet_NaNEv() #5
  %20 = getelementptr inbounds nuw %"struct.dpx::IndustryHeader", ptr %3, i32 0, i32 10
  store float %19, ptr %20, align 4, !tbaa !58
  %21 = getelementptr inbounds nuw %"struct.dpx::IndustryHeader", ptr %3, i32 0, i32 9
  store float %19, ptr %21, align 4, !tbaa !59
  %22 = getelementptr inbounds nuw %"struct.dpx::IndustryHeader", ptr %3, i32 0, i32 11
  %23 = getelementptr inbounds [32 x i8], ptr %22, i64 0, i64 0
  call void @_ZL11EmptyStringPci(ptr noundef %23, i32 noundef 32)
  %24 = getelementptr inbounds nuw %"struct.dpx::IndustryHeader", ptr %3, i32 0, i32 12
  %25 = getelementptr inbounds [100 x i8], ptr %24, i64 0, i64 0
  call void @_ZL11EmptyStringPci(ptr noundef %25, i32 noundef 100)
  %26 = getelementptr inbounds nuw %"struct.dpx::IndustryHeader", ptr %3, i32 0, i32 13
  %27 = getelementptr inbounds [56 x i8], ptr %26, i64 0, i64 0
  call void @_ZL11EmptyStringPci(ptr noundef %27, i32 noundef 56)
  %28 = getelementptr inbounds nuw %"struct.dpx::IndustryHeader", ptr %3, i32 0, i32 15
  store i32 -1, ptr %28, align 4, !tbaa !60
  %29 = getelementptr inbounds nuw %"struct.dpx::IndustryHeader", ptr %3, i32 0, i32 14
  store i32 -1, ptr %29, align 4, !tbaa !61
  %30 = getelementptr inbounds nuw %"struct.dpx::IndustryHeader", ptr %3, i32 0, i32 17
  store i8 -1, ptr %30, align 1, !tbaa !62
  %31 = getelementptr inbounds nuw %"struct.dpx::IndustryHeader", ptr %3, i32 0, i32 16
  store i8 -1, ptr %31, align 4, !tbaa !63
  %32 = getelementptr inbounds nuw %"struct.dpx::IndustryHeader", ptr %3, i32 0, i32 18
  store i8 0, ptr %32, align 2, !tbaa !64
  %33 = getelementptr inbounds nuw %"struct.dpx::IndustryHeader", ptr %3, i32 0, i32 19
  store i8 -1, ptr %33, align 1, !tbaa !65
  %34 = call noundef float @_ZNSt14numeric_limitsIfE9quiet_NaNEv() #5
  %35 = getelementptr inbounds nuw %"struct.dpx::IndustryHeader", ptr %3, i32 0, i32 22
  store float %34, ptr %35, align 4, !tbaa !66
  %36 = getelementptr inbounds nuw %"struct.dpx::IndustryHeader", ptr %3, i32 0, i32 21
  store float %34, ptr %36, align 4, !tbaa !67
  %37 = getelementptr inbounds nuw %"struct.dpx::IndustryHeader", ptr %3, i32 0, i32 20
  store float %34, ptr %37, align 4, !tbaa !68
  %38 = call noundef float @_ZNSt14numeric_limitsIfE9quiet_NaNEv() #5
  %39 = getelementptr inbounds nuw %"struct.dpx::IndustryHeader", ptr %3, i32 0, i32 24
  store float %38, ptr %39, align 4, !tbaa !69
  %40 = getelementptr inbounds nuw %"struct.dpx::IndustryHeader", ptr %3, i32 0, i32 23
  store float %38, ptr %40, align 4, !tbaa !70
  %41 = call noundef float @_ZNSt14numeric_limitsIfE9quiet_NaNEv() #5
  %42 = getelementptr inbounds nuw %"struct.dpx::IndustryHeader", ptr %3, i32 0, i32 26
  store float %41, ptr %42, align 4, !tbaa !71
  %43 = getelementptr inbounds nuw %"struct.dpx::IndustryHeader", ptr %3, i32 0, i32 25
  store float %41, ptr %43, align 4, !tbaa !72
  %44 = call noundef float @_ZNSt14numeric_limitsIfE9quiet_NaNEv() #5
  %45 = getelementptr inbounds nuw %"struct.dpx::IndustryHeader", ptr %3, i32 0, i32 29
  store float %44, ptr %45, align 4, !tbaa !73
  %46 = getelementptr inbounds nuw %"struct.dpx::IndustryHeader", ptr %3, i32 0, i32 28
  store float %44, ptr %46, align 4, !tbaa !74
  %47 = getelementptr inbounds nuw %"struct.dpx::IndustryHeader", ptr %3, i32 0, i32 27
  store float %44, ptr %47, align 4, !tbaa !75
  %48 = getelementptr inbounds nuw %"struct.dpx::IndustryHeader", ptr %3, i32 0, i32 30
  %49 = getelementptr inbounds [76 x i8], ptr %48, i64 0, i64 0
  call void @_ZL11EmptyStringPci(ptr noundef %49, i32 noundef 76)
  ret void
}

; Function Attrs: mustprogress uwtable
define hidden void @_ZN3dpx14IndustryHeaderC2Ev(ptr noundef nonnull align 4 dereferenceable(384) %0) unnamed_addr #7 align 2 {
  %2 = alloca ptr, align 8
  store ptr %0, ptr %2, align 8, !tbaa !21
  %3 = load ptr, ptr %2, align 8
  call void @_ZN3dpx14IndustryHeader5ResetEv(ptr noundef nonnull align 4 dereferenceable(384) %3)
  ret void
}