; Function Attrs: mustprogress nofree norecurse nosync nounwind willreturn memory(argmem: write) uwtable
define hidden void @_ZN3dpx14IndustryHeaderC2Ev(ptr noundef nonnull writeonly align 4 captures(none) dereferenceable(384) initializes((0, 384)) %0) unnamed_addr #7 align 2 {
  %2 = getelementptr inbounds nuw i8, ptr %0, i64 56
  tail call void @llvm.memset.p0.i64(ptr noundef nonnull align 4 dereferenceable(384) %0, i8 0, i64 48, i1 false)
  store i32 -1, ptr %2, align 4, !tbaa !37
  %3 = getelementptr inbounds nuw i8, ptr %0, i64 52
  store i32 -1, ptr %3, align 4, !tbaa !39
  %4 = getelementptr inbounds nuw i8, ptr %0, i64 48
  store i32 -1, ptr %4, align 4, !tbaa !40
  %5 = getelementptr inbounds nuw i8, ptr %0, i64 64
  store float 0x7FF8000000000000, ptr %5, align 4, !tbaa !41
  %6 = getelementptr inbounds nuw i8, ptr %0, i64 60
  store float 0x7FF8000000000000, ptr %6, align 4, !tbaa !42
  %7 = getelementptr inbounds nuw i8, ptr %0, i64 68
  tail call void @llvm.memset.p0.i64(ptr noundef nonnull align 4 dereferenceable(188) %7, i8 0, i64 188, i1 false)
  %8 = getelementptr inbounds nuw i8, ptr %0, i64 256
  %9 = getelementptr inbounds nuw i8, ptr %0, i64 266
  tail call void @llvm.memset.p0.i64(ptr noundef nonnull align 4 dereferenceable(10) %8, i8 -1, i64 10, i1 false)
  store i8 0, ptr %9, align 2, !tbaa !43
  %10 = getelementptr inbounds nuw i8, ptr %0, i64 267
  store i8 -1, ptr %10, align 1, !tbaa !44
  %11 = getelementptr inbounds nuw i8, ptr %0, i64 276
  store float 0x7FF8000000000000, ptr %11, align 4, !tbaa !45
  %12 = getelementptr inbounds nuw i8, ptr %0, i64 272
  store float 0x7FF8000000000000, ptr %12, align 4, !tbaa !46
  %13 = getelementptr inbounds nuw i8, ptr %0, i64 268
  store float 0x7FF8000000000000, ptr %13, align 4, !tbaa !47
  %14 = getelementptr inbounds nuw i8, ptr %0, i64 284
  store float 0x7FF8000000000000, ptr %14, align 4, !tbaa !48
  %15 = getelementptr inbounds nuw i8, ptr %0, i64 280
  store float 0x7FF8000000000000, ptr %15, align 4, !tbaa !49
  %16 = getelementptr inbounds nuw i8, ptr %0, i64 292
  store float 0x7FF8000000000000, ptr %16, align 4, !tbaa !50
  %17 = getelementptr inbounds nuw i8, ptr %0, i64 288
  store float 0x7FF8000000000000, ptr %17, align 4, !tbaa !51
  %18 = getelementptr inbounds nuw i8, ptr %0, i64 304
  store float 0x7FF8000000000000, ptr %18, align 4, !tbaa !52
  %19 = getelementptr inbounds nuw i8, ptr %0, i64 300
  store float 0x7FF8000000000000, ptr %19, align 4, !tbaa !53
  %20 = getelementptr inbounds nuw i8, ptr %0, i64 296
  store float 0x7FF8000000000000, ptr %20, align 4, !tbaa !54
  %21 = getelementptr inbounds nuw i8, ptr %0, i64 308
  tail call void @llvm.memset.p0.i64(ptr noundef nonnull align 4 dereferenceable(76) %21, i8 0, i64 76, i1 false), !tbaa !14
  ret void
}